; Function Attrs: mustprogress nofree norecurse nosync nounwind sspstrong willreturn memory(readwrite, inaccessiblemem: none) uwtable
define internal void @ahci_commit_buf(ptr noundef readonly captures(none) %0, i32 noundef %1) #9 {
  %3 = getelementptr inbounds nuw i8, ptr %0, i64 2488
  %4 = load ptr, ptr %3, align 8
  %5 = getelementptr inbounds nuw i8, ptr %4, i64 4
  %6 = load i32, ptr %5, align 1
  %7 = add i32 %6, %1
  store i32 %7, ptr %5, align 1
  ret void
}